target datalayout = "e-m:e-p270:32:32-p271:32:32-p272:64:64-i64:64-i128:128-f80:128-n8:16:32:64-S128"
target triple = "x86_64-unknown-linux-gnu"

%struct.Token = type { i32, ptr, i64, x86_fp80, ptr, i32, ptr, ptr, ptr, ptr, i32, i32, i8, i8, ptr, ptr }
%struct.Type = type { i32, i32, i32, i8, i8, ptr, ptr, ptr, ptr, i32, ptr, ptr, ptr, i8, i8, ptr, ptr, i8, ptr }
%struct.Member = type { ptr, ptr, ptr, ptr, i32, i32, i32, i8, i32, i32 }
%struct.Initializer = type { ptr, ptr, ptr, i8, ptr, ptr, ptr }

@.str.56 = private unnamed_addr constant [2 x i8] c"[\00", align 1
@.str.67 = private unnamed_addr constant [2 x i8] c".\00", align 1
@.str.74 = private unnamed_addr constant [37 x i8] c"array index in non-array initializer\00", align 1
@.str.75 = private unnamed_addr constant [46 x i8] c"field name not in struct or union initializer\00", align 1
@.str.76 = private unnamed_addr constant [2 x i8] c"=\00", align 1

; Function Attrs: nounwind uwtable
define internal void @designation(ptr noundef %rest, ptr noundef %tok, ptr noundef %init) #0 {
entry:
  %rest.addr = alloca ptr, align 8
  %tok.addr = alloca ptr, align 8
  %init.addr = alloca ptr, align 8
  %begin = alloca i32, align 4
  %end = alloca i32, align 4
  %tok2 = alloca ptr, align 8
  %i = alloca i32, align 4
  %mem = alloca ptr, align 8
  %mem22 = alloca ptr, align 8
  store ptr %rest, ptr %rest.addr, align 8
  store ptr %tok, ptr %tok.addr, align 8
  store ptr %init, ptr %init.addr, align 8
  %0 = load ptr, ptr %tok.addr, align 8
  %call = call zeroext i1 @equal(ptr noundef %0, ptr noundef @.str.56)
  br i1 %call, label %if.then, label %if.end4

if.then:                                          ; preds = %entry
  %1 = load ptr, ptr %init.addr, align 8
  %ty = getelementptr inbounds %struct.Initializer, ptr %1, i32 0, i32 1
  %2 = load ptr, ptr %ty, align 8
  %kind = getelementptr inbounds %struct.Type, ptr %2, i32 0, i32 0
  %3 = load i32, ptr %kind, align 8
  %cmp = icmp ne i32 %3, 12
  br i1 %cmp, label %if.then1, label %if.end

if.then1:                                         ; preds = %if.then
  %4 = load ptr, ptr %tok.addr, align 8
  call void (ptr, ptr, ...) @error_tok(ptr noundef %4, ptr noundef @.str.74) #9
  unreachable

if.end:                                           ; preds = %if.then
  %5 = load ptr, ptr %tok.addr, align 8
  %6 = load ptr, ptr %init.addr, align 8
  %ty2 = getelementptr inbounds %struct.Initializer, ptr %6, i32 0, i32 1
  %7 = load ptr, ptr %ty2, align 8
  call void @array_designator(ptr noundef %tok.addr, ptr noundef %5, ptr noundef %7, ptr noundef %begin, ptr noundef %end)
  %8 = load i32, ptr %begin, align 4
  store i32 %8, ptr %i, align 4
  br label %for.cond

for.cond:                                         ; preds = %for.inc, %if.end
  %9 = load i32, ptr %i, align 4
  %10 = load i32, ptr %end, align 4
  %cmp3 = icmp sle i32 %9, %10
  br i1 %cmp3, label %for.body, label %for.end

for.body:                                         ; preds = %for.cond
  %11 = load ptr, ptr %tok.addr, align 8
  %12 = load ptr, ptr %init.addr, align 8
  %children = getelementptr inbounds %struct.Initializer, ptr %12, i32 0, i32 5
  %13 = load ptr, ptr %children, align 8
  %14 = load i32, ptr %i, align 4
  %idxprom = sext i32 %14 to i64
  %arrayidx = getelementptr inbounds ptr, ptr %13, i64 %idxprom
  %15 = load ptr, ptr %arrayidx, align 8
  call void @designation(ptr noundef %tok2, ptr noundef %11, ptr noundef %15)
  br label %for.inc

for.inc:                                          ; preds = %for.body
  %16 = load i32, ptr %i, align 4
  %inc = add nsw i32 %16, 1
  store i32 %inc, ptr %i, align 4
  br label %for.cond, !llvm.loop !44

for.end:                                          ; preds = %for.cond
  %17 = load ptr, ptr %rest.addr, align 8
  %18 = load ptr, ptr %tok2, align 8
  %19 = load ptr, ptr %init.addr, align 8
  %20 = load i32, ptr %begin, align 4
  %add = add nsw i32 %20, 1
  call void @array_initializer2(ptr noundef %17, ptr noundef %18, ptr noundef %19, i32 noundef %add)
  br label %return

if.end4:                                          ; preds = %entry
  %21 = load ptr, ptr %tok.addr, align 8
  %call5 = call zeroext i1 @equal(ptr noundef %21, ptr noundef @.str.67)
  br i1 %call5, label %land.lhs.true, label %if.end15

land.lhs.true:                                    ; preds = %if.end4
  %22 = load ptr, ptr %init.addr, align 8
  %ty6 = getelementptr inbounds %struct.Initializer, ptr %22, i32 0, i32 1
  %23 = load ptr, ptr %ty6, align 8
  %kind7 = getelementptr inbounds %struct.Type, ptr %23, i32 0, i32 0
  %24 = load i32, ptr %kind7, align 8
  %cmp8 = icmp eq i32 %24, 14
  br i1 %cmp8, label %if.then9, label %if.end15

if.then9:                                         ; preds = %land.lhs.true
  %25 = load ptr, ptr %tok.addr, align 8
  %26 = load ptr, ptr %init.addr, align 8
  %ty10 = getelementptr inbounds %struct.Initializer, ptr %26, i32 0, i32 1
  %27 = load ptr, ptr %ty10, align 8
  %call11 = call ptr @struct_designator(ptr noundef %tok.addr, ptr noundef %25, ptr noundef %27)
  store ptr %call11, ptr %mem, align 8
  %28 = load ptr, ptr %tok.addr, align 8
  %29 = load ptr, ptr %init.addr, align 8
  %children12 = getelementptr inbounds %struct.Initializer, ptr %29, i32 0, i32 5
  %30 = load ptr, ptr %children12, align 8
  %31 = load ptr, ptr %mem, align 8
  %idx = getelementptr inbounds %struct.Member, ptr %31, i32 0, i32 4
  %32 = load i32, ptr %idx, align 8
  %idxprom13 = sext i32 %32 to i64
  %arrayidx14 = getelementptr inbounds ptr, ptr %30, i64 %idxprom13
  %33 = load ptr, ptr %arrayidx14, align 8
  call void @designation(ptr noundef %tok.addr, ptr noundef %28, ptr noundef %33)
  %34 = load ptr, ptr %init.addr, align 8
  %expr = getelementptr inbounds %struct.Initializer, ptr %34, i32 0, i32 4
  store ptr null, ptr %expr, align 8
  %35 = load ptr, ptr %rest.addr, align 8
  %36 = load ptr, ptr %tok.addr, align 8
  %37 = load ptr, ptr %init.addr, align 8
  %38 = load ptr, ptr %mem, align 8
  %next = getelementptr inbounds %struct.Member, ptr %38, i32 0, i32 0
  %39 = load ptr, ptr %next, align 8
  call void @struct_initializer2(ptr noundef %35, ptr noundef %36, ptr noundef %37, ptr noundef %39)
  br label %return

if.end15:                                         ; preds = %land.lhs.true, %if.end4
  %40 = load ptr, ptr %tok.addr, align 8
  %call16 = call zeroext i1 @equal(ptr noundef %40, ptr noundef @.str.67)
  br i1 %call16, label %land.lhs.true17, label %if.end30

land.lhs.true17:                                  ; preds = %if.end15
  %41 = load ptr, ptr %init.addr, align 8
  %ty18 = getelementptr inbounds %struct.Initializer, ptr %41, i32 0, i32 1
  %42 = load ptr, ptr %ty18, align 8
  %kind19 = getelementptr inbounds %struct.Type, ptr %42, i32 0, i32 0
  %43 = load i32, ptr %kind19, align 8
  %cmp20 = icmp eq i32 %43, 15
  br i1 %cmp20, label %if.then21, label %if.end30

if.then21:                                        ; preds = %land.lhs.true17
  %44 = load ptr, ptr %tok.addr, align 8
  %45 = load ptr, ptr %init.addr, align 8
  %ty23 = getelementptr inbounds %struct.Initializer, ptr %45, i32 0, i32 1
  %46 = load ptr, ptr %ty23, align 8
  %call24 = call ptr @struct_designator(ptr noundef %tok.addr, ptr noundef %44, ptr noundef %46)
  store ptr %call24, ptr %mem22, align 8
  %47 = load ptr, ptr %mem22, align 8
  %48 = load ptr, ptr %init.addr, align 8
  %mem25 = getelementptr inbounds %struct.Initializer, ptr %48, i32 0, i32 6
  store ptr %47, ptr %mem25, align 8
  %49 = load ptr, ptr %rest.addr, align 8
  %50 = load ptr, ptr %tok.addr, align 8
  %51 = load ptr, ptr %init.addr, align 8
  %children26 = getelementptr inbounds %struct.Initializer, ptr %51, i32 0, i32 5
  %52 = load ptr, ptr %children26, align 8
  %53 = load ptr, ptr %mem22, align 8
  %idx27 = getelementptr inbounds %struct.Member, ptr %53, i32 0, i32 4
  %54 = load i32, ptr %idx27, align 8
  %idxprom28 = sext i32 %54 to i64
  %arrayidx29 = getelementptr inbounds ptr, ptr %52, i64 %idxprom28
  %55 = load ptr, ptr %arrayidx29, align 8
  call void @designation(ptr noundef %49, ptr noundef %50, ptr noundef %55)
  br label %return

if.end30:                                         ; preds = %land.lhs.true17, %if.end15
  %56 = load ptr, ptr %tok.addr, align 8
  %call31 = call zeroext i1 @equal(ptr noundef %56, ptr noundef @.str.67)
  br i1 %call31, label %if.then32, label %if.end33

if.then32:                                        ; preds = %if.end30
  %57 = load ptr, ptr %tok.addr, align 8
  call void (ptr, ptr, ...) @error_tok(ptr noundef %57, ptr noundef @.str.75) #9
  unreachable

if.end33:                                         ; preds = %if.end30
  %58 = load ptr, ptr %tok.addr, align 8
  %call34 = call zeroext i1 @equal(ptr noundef %58, ptr noundef @.str.76)
  br i1 %call34, label %if.then35, label %if.end37

if.then35:                                        ; preds = %if.end33
  %59 = load ptr, ptr %tok.addr, align 8
  %next36 = getelementptr inbounds %struct.Token, ptr %59, i32 0, i32 1
  %60 = load ptr, ptr %next36, align 8
  store ptr %60, ptr %tok.addr, align 8
  br label %if.end37

if.end37:                                         ; preds = %if.then35, %if.end33
  %61 = load ptr, ptr %rest.addr, align 8
  %62 = load ptr, ptr %tok.addr, align 8
  %63 = load ptr, ptr %init.addr, align 8
  call void @initializer2(ptr noundef %61, ptr noundef %62, ptr noundef %63)
  br label %return

return:                                           ; preds = %if.end37, %if.then21, %if.then9, %for.end
  ret void
}