; Function Attrs: nounwind uwtable
define internal fastcc void @designation(ptr noundef %rest, ptr noundef %tok, ptr nocapture noundef %init) unnamed_addr #0 {
entry:
  %tok.addr = alloca ptr, align 8
  %begin = alloca i32, align 4
  %end = alloca i32, align 4
  %tok2 = alloca ptr, align 8
  store ptr %tok, ptr %tok.addr, align 8
  %call23 = tail call zeroext i1 @equal(ptr noundef %tok, ptr noundef nonnull @.str.56) #13
  br i1 %call23, label %if.then, label %if.end4

if.then:                                          ; preds = %if.then21, %entry
  %0 = phi ptr [ %tok, %entry ], [ %20, %if.then21 ]
  %init.tr.lcssa = phi ptr [ %init, %entry ], [ %23, %if.then21 ]
  %ty = getelementptr inbounds %struct.Initializer, ptr %init.tr.lcssa, i64 0, i32 1
  %1 = load ptr, ptr %ty, align 8
  %2 = load i32, ptr %1, align 8
  %cmp.not = icmp eq i32 %2, 12
  br i1 %cmp.not, label %if.end, label %if.then1

if.then1:                                         ; preds = %if.then
  tail call void (ptr, ptr, ...) @error_tok(ptr noundef %0, ptr noundef nonnull @.str.74) #16
  unreachable

if.end:                                           ; preds = %if.then
  call fastcc void @array_designator(ptr noundef nonnull %tok.addr, ptr noundef %0, ptr noundef nonnull %1, ptr noundef nonnull %begin, ptr noundef nonnull %end)
  %3 = load i32, ptr %begin, align 4
  %4 = load i32, ptr %end, align 4
  %cmp3.not25 = icmp sle i32 %3, %4
  tail call void @llvm.assume(i1 %cmp3.not25)
  %children = getelementptr inbounds %struct.Initializer, ptr %init.tr.lcssa, i64 0, i32 5
  %5 = sext i32 %3 to i64
  %6 = add i32 %4, 1
  %.pre = load ptr, ptr %tok.addr, align 8
  br label %for.body

for.body:                                         ; preds = %if.end, %for.body
  %indvars.iv = phi i64 [ %5, %if.end ], [ %indvars.iv.next, %for.body ]
  %7 = load ptr, ptr %children, align 8
  %arrayidx = getelementptr inbounds ptr, ptr %7, i64 %indvars.iv
  %8 = load ptr, ptr %arrayidx, align 8
  call fastcc void @designation(ptr noundef nonnull %tok2, ptr noundef %.pre, ptr noundef %8)
  %indvars.iv.next = add nsw i64 %indvars.iv, 1
  %lftr.wideiv = trunc i64 %indvars.iv.next to i32
  %exitcond.not = icmp eq i32 %6, %lftr.wideiv
  br i1 %exitcond.not, label %for.end.loopexit, label %for.body, !llvm.loop !48

for.end.loopexit:                                 ; preds = %for.body
  %.pre31 = load ptr, ptr %tok2, align 8
  %add = add nsw i32 %3, 1
  call fastcc void @array_initializer2(ptr noundef %rest, ptr noundef %.pre31, ptr noundef nonnull %init.tr.lcssa, i32 noundef %add)
  br label %return

if.end4:                                          ; preds = %entry, %if.then21
  %9 = phi ptr [ %20, %if.then21 ], [ %tok, %entry ]
  %init.tr24 = phi ptr [ %23, %if.then21 ], [ %init, %entry ]
  %call5 = tail call zeroext i1 @equal(ptr noundef %9, ptr noundef nonnull @.str.67) #13
  br i1 %call5, label %land.lhs.true, label %if.end15

land.lhs.true:                                    ; preds = %if.end4
  %ty6 = getelementptr inbounds %struct.Initializer, ptr %init.tr24, i64 0, i32 1
  %10 = load ptr, ptr %ty6, align 8
  %11 = load i32, ptr %10, align 8
  %cmp8 = icmp eq i32 %11, 14
  br i1 %cmp8, label %if.then9, label %if.end15

if.then9:                                         ; preds = %land.lhs.true
  %call11 = call fastcc ptr @struct_designator(ptr noundef nonnull %tok.addr, ptr noundef %9, ptr noundef nonnull %10)
  %12 = load ptr, ptr %tok.addr, align 8
  %children12 = getelementptr inbounds %struct.Initializer, ptr %init.tr24, i64 0, i32 5
  %13 = load ptr, ptr %children12, align 8
  %idx = getelementptr inbounds %struct.Member, ptr %call11, i64 0, i32 4
  %14 = load i32, ptr %idx, align 8
  %idxprom13 = sext i32 %14 to i64
  %arrayidx14 = getelementptr inbounds ptr, ptr %13, i64 %idxprom13
  %15 = load ptr, ptr %arrayidx14, align 8
  call fastcc void @designation(ptr noundef nonnull %tok.addr, ptr noundef %12, ptr noundef %15)
  %expr = getelementptr inbounds %struct.Initializer, ptr %init.tr24, i64 0, i32 4
  store ptr null, ptr %expr, align 8
  %16 = load ptr, ptr %tok.addr, align 8
  %17 = load ptr, ptr %call11, align 8
  call fastcc void @struct_initializer2(ptr noundef %rest, ptr noundef %16, ptr noundef nonnull %init.tr24, ptr noundef %17)
  br label %return

if.end15:                                         ; preds = %land.lhs.true, %if.end4
  %call16 = tail call zeroext i1 @equal(ptr noundef %9, ptr noundef nonnull @.str.67) #13
  br i1 %call16, label %land.lhs.true17, label %if.end30

land.lhs.true17:                                  ; preds = %if.end15
  %ty18 = getelementptr inbounds %struct.Initializer, ptr %init.tr24, i64 0, i32 1
  %18 = load ptr, ptr %ty18, align 8
  %19 = load i32, ptr %18, align 8
  %cmp20 = icmp eq i32 %19, 15
  br i1 %cmp20, label %if.then21, label %if.end30

if.then21:                                        ; preds = %land.lhs.true17
  %call24 = call fastcc ptr @struct_designator(ptr noundef nonnull %tok.addr, ptr noundef %9, ptr noundef nonnull %18)
  %mem25 = getelementptr inbounds %struct.Initializer, ptr %init.tr24, i64 0, i32 6
  store ptr %call24, ptr %mem25, align 8
  %20 = load ptr, ptr %tok.addr, align 8
  %children26 = getelementptr inbounds %struct.Initializer, ptr %init.tr24, i64 0, i32 5
  %21 = load ptr, ptr %children26, align 8
  %idx27 = getelementptr inbounds %struct.Member, ptr %call24, i64 0, i32 4
  %22 = load i32, ptr %idx27, align 8
  %idxprom28 = sext i32 %22 to i64
  %arrayidx29 = getelementptr inbounds ptr, ptr %21, i64 %idxprom28
  %23 = load ptr, ptr %arrayidx29, align 8
  %call = tail call zeroext i1 @equal(ptr noundef %20, ptr noundef nonnull @.str.56) #13
  br i1 %call, label %if.then, label %if.end4

if.end30:                                         ; preds = %land.lhs.true17, %if.end15
  %call31 = tail call zeroext i1 @equal(ptr noundef %9, ptr noundef nonnull @.str.67) #13
  br i1 %call31, label %if.then32, label %if.end33

if.then32:                                        ; preds = %if.end30
  tail call void (ptr, ptr, ...) @error_tok(ptr noundef %9, ptr noundef nonnull @.str.75) #16
  unreachable

if.end33:                                         ; preds = %if.end30
  %call34 = tail call zeroext i1 @equal(ptr noundef %9, ptr noundef nonnull @.str.76) #13
  br i1 %call34, label %if.then35, label %if.end37

if.then35:                                        ; preds = %if.end33
  %next36 = getelementptr inbounds %struct.Token, ptr %9, i64 0, i32 1
  %24 = load ptr, ptr %next36, align 8
  br label %if.end37

if.end37:                                         ; preds = %if.then35, %if.end33
  %25 = phi ptr [ %24, %if.then35 ], [ %9, %if.end33 ]
  tail call fastcc void @initializer2(ptr noundef %rest, ptr noundef %25, ptr noundef %init.tr24)
  br label %return

return:                                           ; preds = %if.end37, %if.then9, %for.end.loopexit
  ret void
}